cnltk.probability
ConditionalFreqDist
p0
(tRp1
Vand
p2
cnltk.probability
FreqDist
p3
((dp4
Va
p5
I53
sVthat
p6
I106
sVI
p7
I293
sVthe
p8
I204
sVit
p9
I55
sVhe
p10
I54
stp11
Rp12
sVall
p13
g3
((dp14
Vof
p15
I63
sVthe
p16
I112
stp17
Rp18
sVbecause
p19
g3
((dp20
g7
I55
stp21
Rp22
sVwant
p23
g3
((dp24
Vto
p25
I86
stp26
Rp27
sVdo
p28
g3
((dp29
Vnot
p30
I65
stp31
Rp32
sVhad
p33
g3
((dp34
Vbeen
p35
I54
stp36
Rp37
sVis
p38
g3
((dp39
Vnot
p40
I100
sg5
I196
sVthe
p41
I117
sVto
p42
I51
sVthat
p43
I56
stp44
Rp45
sVit
p46
g3
((dp47
Vwas
p48
I145
sVis
p49
I238
sV's
p50
I80
sV,
p51
I89
stp52
Rp53
sVone
p54
g3
((dp55
Vof
p56
I121
stp57
Rp58
sVas
p59
g3
((dp60
g5
I126
sg7
I51
stp61
Rp62
sVat
p63
g3
((dp64
Vthe
p65
I137
stp66
Rp67
sVhave
p68
g3
((dp69
g5
I87
sVto
p70
I86
sVbeen
p71
I162
stp72
Rp73
sVin
p74
g3
((dp75
g5
I171
sVthis
p76
I81
sVthe
p77
I614
sVmy
p78
I86
sVyour
p79
I70
stp80
Rp81
sVNew
p82
g3
((dp83
VYork
p84
I104
stp85
Rp86
sS'You'
p87
g3
((dp88
tp89
Rp90
sVout
p91
g3
((dp92
Vof
p93
I82
stp94
Rp95
sVwhat
p96
g3
((dp97
g7
I57
stp98
Rp99
sVsaid
p100
g3
((dp101
g51
I57
stp102
Rp103
sVfrom
p104
g3
((dp105
Vthe
p106
I117
stp107
Rp108
sVwould
p109
g3
((dp110
Vbe
p111
I94
sVhave
p112
I58
stp113
Rp114
sVSincerely
p115
g3
((dp116
g51
I60
stp117
Rp118
sVthere
p119
g3
((dp120
Vis
p121
I70
stp122
Rp123
sVwhen
p124
g3
((dp125
g7
I84
sVyou
p126
I52
stp127
Rp128
sg51
g3
((dp129
Vand
p130
I809
sVwe
p131
I69
sg19
I57
sVthat
p132
I104
sg7
I618
sVis
p133
I53
sVwho
p134
I56
sVit
p135
I123
sVbut
p136
I303
sVas
p137
I106
sVSigned
p138
I161
sg74
I150
sVwith
p139
I51
sVthe
p140
I261
sVif
p141
I58
sg5
I75
sVfor
p142
I71
sVwhen
p143
I52
sVto
p144
I107
sVso
p145
I76
sVwhich
p146
I86
sVyou
p147
I132
sVhe
p148
I128
sVor
p149
I79
stp150
Rp151
sVshould
p152
g3
((dp153
Vbe
p154
I69
stp155
Rp156
sVto
p157
g3
((dp158
Vme
p159
I88
sVdo
p160
I113
sVget
p161
I79
sVmake
p162
I88
sVgive
p163
I52
sVyou
p164
I121
sVwrite
p165
I57
sVsee
p166
I82
sg5
I66
sVhave
p167
I109
sVbe
p168
I261
sVthe
p169
I329
sVknow
p170
I51
stp171
Rp172
sVgoing
p173
g3
((dp174
Vto
p175
I70
stp176
Rp177
sVwhich
p178
g3
((dp179
g7
I60
stp180
Rp181
sVyou
p182
g3
((dp183
Vand
p184
I73
sVfor
p185
I69
sg51
I94
sVwill
p186
I94
sVto
p187
I77
sVknow
p188
I73
sVhave
p189
I130
sVare
p190
I160
sVcan
p191
I104
stp192
Rp193
sV:
p194
g3
((dp195
g7
I75
stp196
Rp197
sVwas
p198
g3
((dp199
Vnot
p200
I51
sg5
I78
sVthe
p201
I54
stp202
Rp203
sV?
p204
g3
((dp205
g7
I52
stp206
Rp207
sg5
g3
((dp208
Vfew
p209
I69
sVlittle
p210
I81
sVgood
p211
I51
sVlot
p212
I53
sVvery
p213
I58
sVgreat
p214
I53
stp215
Rp216
sVthat
p217
g3
((dp218
Vthe
p219
I143
sVwe
p220
I69
sg7
I220
sVis
p221
I58
sVhe
p222
I102
sVit
p223
I79
sVyou
p224
I211
stp225
Rp226
sg7
g3
((dp227
g28
I69
sVhave
p228
I389
sVfeel
p229
I56
sVam
p230
I410
sVknow
p231
I88
sVwant
p232
I60
sV'll
p233
I55
sV'm
p234
I161
sVbelieve
p235
I55
sVdon
p236
I89
sVwould
p237
I124
sVdid
p238
I51
sVcould
p239
I83
sVhad
p240
I116
sV've
p241
I90
sVwill
p242
I122
sVcan
p243
I121
sVwas
p244
I200
sVthink
p245
I110
sVhope
p246
I75
stp247
Rp248
sVbut
p249
g3
((dp250
g7
I126
stp251
Rp252
sVlike
p253
g3
((dp254
Vto
p255
I71
stp256
Rp257
sVif
p258
g3
((dp259
g7
I61
sVyou
p260
I114
stp261
Rp262
sVSigned
p263
g3
((dp264
g51
I124
stp265
Rp266
sVthey
p267
g3
((dp268
Vare
p269
I57
stp270
Rp271
sVbe
p272
g3
((dp273
g5
I69
stp274
Rp275
sg139
g3
((dp276
g5
I83
sVthe
p277
I163
stp278
Rp279
sVby
p280
g3
((dp281
Vthe
p282
I100
stp283
Rp284
sg222
g3
((dp285
Vwas
p286
I88
sVis
p287
I55
sg33
I67
stp288
Rp289
sVme
p290
g3
((dp291
Vto
p292
I93
sg51
I67
stp293
Rp294
sVon
p295
g3
((dp296
Vthe
p297
I242
stp298
Rp299
sVabout
p300
g3
((dp301
Vthe
p302
I98
stp303
Rp304
sVhas
p305
g3
((dp306
Vbeen
p307
I69
stp308
Rp309
sVdon
p310
g3
((dp311
V't
p312
I207
stp313
Rp314
sVfor
p315
g3
((dp316
g5
I98
sVme
p317
I60
sVthe
p318
I207
sVyour
p319
I80
sVyou
p320
I57
stp321
Rp322
sg238
g3
((dp323
Vnot
p324
I66
stp325
Rp326
sVof
p327
g3
((dp328
g5
I139
sVhis
p329
I61
sVthis
p330
I72
sVus
p331
I52
sVour
p332
I71
sVthe
p333
I783
sVmy
p334
I110
sVyour
p335
I100
stp336
Rp337
sVdidn
p338
g3
((dp339
V't
p340
I64
stp341
Rp342
sVIt
p343
g3
((dp344
Vwas
p345
I53
sVis
p346
I123
sV's
p347
I73
stp348
Rp349
sg170
g3
((dp350
Vthat
p351
I65
stp352
Rp353
sVwill
p354
g3
((dp355
Vbe
p356
I158
stp357
Rp358
sVthis
p359
g3
((dp360
Vis
p361
I52
stp362
Rp363
sVcan
p364
g3
((dp365
V't
p366
I64
stp367
Rp368
sVtime
p369
g3
((dp370
g51
I53
stp371
Rp372
sVDear
p373
g3
((dp374
VMr.
p375
I54
stp376
Rp377
sVthe
p378
g3
((dp379
Vlast
p380
I60
sVtime
p381
I56
sVsame
p382
I91
sVmost
p383
I67
sVother
p384
I53
sVway
p385
I74
sVInternet
p386
I53
sVworld
p387
I90
sVbest
p388
I59
sVfirst
p389
I70
stp390
Rp391
sVIf
p392
g3
((dp393
Vyou
p394
I64
stp395
Rp396
s.